target datalayout = "e-m:e-p270:32:32-p271:32:32-p272:64:64-i64:64-i128:128-f80:128-n8:16:32:64-S128"
target triple = "x86_64-pc-linux-gnu"

%struct.ident_t = type { i32, i32, i32, i32, ptr }
%"class.gmx::ISimulatorElement" = type { ptr }
%"class.std::vector" = type { %"struct.std::_Vector_base" }
%"struct.std::_Vector_base" = type { %"struct.std::_Vector_base<float, std::allocator<float>>::_Vector_impl" }
%"struct.std::_Vector_base<float, std::allocator<float>>::_Vector_impl" = type { %"struct.std::_Vector_base<float, std::allocator<float>>::_Vector_impl_data" }
%"struct.std::_Vector_base<float, std::allocator<float>>::_Vector_impl_data" = type { ptr, ptr, ptr }
%"class.gmx::MultiDimArray" = type { %"struct.std::array", %"class.gmx::basic_mdspan" }
%"struct.std::array" = type { [9 x float] }
%"class.gmx::basic_mdspan" = type { %"class.gmx::accessor_basic", %"class.gmx::layout_right::mapping", ptr }
%"class.gmx::accessor_basic" = type { i8 }
%"class.gmx::layout_right::mapping" = type { %"class.gmx::extents" }
%"class.gmx::extents" = type { %"struct.gmx::detail::extents_analyse" }
%"struct.gmx::detail::extents_analyse" = type { %"struct.gmx::detail::extents_analyse.0" }
%"struct.gmx::detail::extents_analyse.0" = type { %"struct.gmx::detail::extents_analyse.1" }
%"struct.gmx::detail::extents_analyse.1" = type { i8 }
%"class.gmx::Propagator.476" = type { %"class.gmx::ISimulatorElement", float, ptr, i8, i8, i8, i8, i8, i8, %"class.std::vector", %"class.std::vector", %"class.std::vector", i64, i64, %"class.gmx::MultiDimArray", i64, ptr, ptr }
%struct.t_mdatoms = type { float, float, float, i32, i32, i8, i8, i8, i32, i32, i32, i32, i8, %"class.std::vector", %"class.std::vector", %"class.std::vector", %"class.gmx::PaddedVector.47", %"class.std::vector.52", %"class.gmx::ArrayRef.57", %"class.gmx::ArrayRef.57", %"class.std::vector", %"class.std::vector", %"class.std::vector", %"class.std::vector", %"class.std::vector", %"class.std::vector", %"class.std::vector.60", %"class.std::vector.15", %"class.std::vector.15", %"class.std::vector.65", %"class.std::vector.70", %"class.std::vector.70", %"class.std::vector.70", %"class.std::vector.70", %"class.std::vector.70", %"class.std::vector.70", %"class.std::vector.70", %"class.std::vector.70", i32, float }
%"class.gmx::PaddedVector.47" = type { %"class.std::vector.48", %"class.__gnu_cxx::__normal_iterator.51" }
%"class.std::vector.48" = type { %"struct.std::_Vector_base.49" }
%"struct.std::_Vector_base.49" = type { %"struct.std::_Vector_base<float, gmx::Allocator<float, gmx::AlignedAllocationPolicy>>::_Vector_impl" }
%"struct.std::_Vector_base<float, gmx::Allocator<float, gmx::AlignedAllocationPolicy>>::_Vector_impl" = type { %"struct.std::_Vector_base<float, gmx::Allocator<float, gmx::AlignedAllocationPolicy>>::_Vector_impl_data" }
%"struct.std::_Vector_base<float, gmx::Allocator<float, gmx::AlignedAllocationPolicy>>::_Vector_impl_data" = type { ptr, ptr, ptr }
%"class.__gnu_cxx::__normal_iterator.51" = type { ptr }
%"class.std::vector.52" = type { %"struct.std::_Vector_base.53" }
%"struct.std::_Vector_base.53" = type { %"struct.std::_Vector_base<gmx::BasicVector<float>, std::allocator<gmx::BasicVector<float>>>::_Vector_impl" }
%"struct.std::_Vector_base<gmx::BasicVector<float>, std::allocator<gmx::BasicVector<float>>>::_Vector_impl" = type { %"struct.std::_Vector_base<gmx::BasicVector<float>, std::allocator<gmx::BasicVector<float>>>::_Vector_impl_data" }
%"struct.std::_Vector_base<gmx::BasicVector<float>, std::allocator<gmx::BasicVector<float>>>::_Vector_impl_data" = type { ptr, ptr, ptr }
%"class.gmx::ArrayRef.57" = type { %"struct.gmx::ArrayRefIter.58", %"struct.gmx::ArrayRefIter.58" }
%"struct.gmx::ArrayRefIter.58" = type { ptr }
%"class.std::vector.60" = type { %"struct.std::_Vector_base.61" }
%"struct.std::_Vector_base.61" = type { %"struct.std::_Vector_base<gmx::BoolType, std::allocator<gmx::BoolType>>::_Vector_impl" }
%"struct.std::_Vector_base<gmx::BoolType, std::allocator<gmx::BoolType>>::_Vector_impl" = type { %"struct.std::_Vector_base<gmx::BoolType, std::allocator<gmx::BoolType>>::_Vector_impl_data" }
%"struct.std::_Vector_base<gmx::BoolType, std::allocator<gmx::BoolType>>::_Vector_impl_data" = type { ptr, ptr, ptr }
%"class.std::vector.15" = type { %"struct.std::_Vector_base.16" }
%"struct.std::_Vector_base.16" = type { %"struct.std::_Vector_base<int, std::allocator<int>>::_Vector_impl" }
%"struct.std::_Vector_base<int, std::allocator<int>>::_Vector_impl" = type { %"struct.std::_Vector_base<int, std::allocator<int>>::_Vector_impl_data" }
%"struct.std::_Vector_base<int, std::allocator<int>>::_Vector_impl_data" = type { ptr, ptr, ptr }
%"class.std::vector.65" = type { %"struct.std::_Vector_base.66" }
%"struct.std::_Vector_base.66" = type { %"struct.std::_Vector_base<ParticleType, std::allocator<ParticleType>>::_Vector_impl" }
%"struct.std::_Vector_base<ParticleType, std::allocator<ParticleType>>::_Vector_impl" = type { %"struct.std::_Vector_base<ParticleType, std::allocator<ParticleType>>::_Vector_impl_data" }
%"struct.std::_Vector_base<ParticleType, std::allocator<ParticleType>>::_Vector_impl_data" = type { ptr, ptr, ptr }
%"class.std::vector.70" = type { %"struct.std::_Vector_base.71" }
%"struct.std::_Vector_base.71" = type { %"struct.std::_Vector_base<unsigned short, std::allocator<unsigned short>>::_Vector_impl" }
%"struct.std::_Vector_base<unsigned short, std::allocator<unsigned short>>::_Vector_impl" = type { %"struct.std::_Vector_base<unsigned short, std::allocator<unsigned short>>::_Vector_impl_data" }
%"struct.std::_Vector_base<unsigned short, std::allocator<unsigned short>>::_Vector_impl_data" = type { ptr, ptr, ptr }
%"class.gmx::MDAtoms" = type { %"class.std::unique_ptr.34", %"class.gmx::PaddedVector.42", %"class.gmx::PaddedVector.42" }
%"class.std::unique_ptr.34" = type { %"struct.std::__uniq_ptr_data.35" }
%"struct.std::__uniq_ptr_data.35" = type { %"class.std::__uniq_ptr_impl.36" }
%"class.std::__uniq_ptr_impl.36" = type { %"class.std::tuple.37" }
%"class.std::tuple.37" = type { %"struct.std::_Tuple_impl.38" }
%"struct.std::_Tuple_impl.38" = type { %"struct.std::_Head_base.41" }
%"struct.std::_Head_base.41" = type { ptr }
%"class.gmx::PaddedVector.42" = type { %"class.std::vector.43", %"class.__gnu_cxx::__normal_iterator.46" }
%"class.std::vector.43" = type { %"struct.std::_Vector_base.44" }
%"struct.std::_Vector_base.44" = type { %"struct.std::_Vector_base<float, gmx::Allocator<float, gmx::HostAllocationPolicy>>::_Vector_impl" }
%"struct.std::_Vector_base<float, gmx::Allocator<float, gmx::HostAllocationPolicy>>::_Vector_impl" = type { %"class.gmx::Allocator.45", %"struct.std::_Vector_base<float, gmx::Allocator<float, gmx::HostAllocationPolicy>>::_Vector_impl_data" }
%"class.gmx::Allocator.45" = type { %"class.gmx::HostAllocationPolicy" }
%"class.gmx::HostAllocationPolicy" = type { i32 }
%"struct.std::_Vector_base<float, gmx::Allocator<float, gmx::HostAllocationPolicy>>::_Vector_impl_data" = type { ptr, ptr, ptr }
%"class.__gnu_cxx::__normal_iterator.46" = type { ptr }

@1 = private unnamed_addr constant %struct.ident_t { i32 0, i32 514, i32 0, i32 22, ptr @0 }, align 8
@_ZTISt9exception = external constant ptr

; Function Attrs: mustprogress nounwind uwtable
define linkonce_odr noundef nonnull align 8 dereferenceable(8) ptr @_ZNSt10_Head_baseILm0EP9t_mdatomsLb0EE7_M_headERKS2_(ptr noundef nonnull align 8 dereferenceable(8) %0) #1 comdat align 2 {
  %2 = alloca ptr, align 8
  store ptr %0, ptr %2, align 8
  %3 = load ptr, ptr %2, align 8
  %4 = getelementptr inbounds %"struct.std::_Head_base.41", ptr %3, i32 0, i32 0
  ret ptr %4
}

; Function Attrs: mustprogress nounwind uwtable
define linkonce_odr noundef nonnull align 8 dereferenceable(8) ptr @_ZNSt11_Tuple_implILm0EJP9t_mdatomsSt14default_deleteIS0_EEE7_M_headERKS4_(ptr noundef nonnull align 8 dereferenceable(8) %0) #1 comdat align 2 {
  %2 = alloca ptr, align 8
  store ptr %0, ptr %2, align 8
  %3 = load ptr, ptr %2, align 8
  %4 = call noundef nonnull align 8 dereferenceable(8) ptr @_ZNSt10_Head_baseILm0EP9t_mdatomsLb0EE7_M_headERKS2_(ptr noundef nonnull align 8 dereferenceable(8) %3) #10
  ret ptr %4
}

; Function Attrs: mustprogress nounwind uwtable
define linkonce_odr noundef nonnull align 8 dereferenceable(8) ptr @_ZSt12__get_helperILm0EP9t_mdatomsJSt14default_deleteIS0_EEERKT0_RKSt11_Tuple_implIXT_EJS4_DpT1_EE(ptr noundef nonnull align 8 dereferenceable(8) %0) #1 comdat {
  %2 = alloca ptr, align 8
  store ptr %0, ptr %2, align 8
  %3 = load ptr, ptr %2, align 8
  %4 = call noundef nonnull align 8 dereferenceable(8) ptr @_ZNSt11_Tuple_implILm0EJP9t_mdatomsSt14default_deleteIS0_EEE7_M_headERKS4_(ptr noundef nonnull align 8 dereferenceable(8) %3) #10
  ret ptr %4
}

; Function Attrs: mustprogress nounwind uwtable
define linkonce_odr noundef nonnull align 8 dereferenceable(8) ptr @_ZSt3getILm0EJP9t_mdatomsSt14default_deleteIS0_EEERKNSt13tuple_elementIXT_ESt5tupleIJDpT0_EEE4typeERKS8_(ptr noundef nonnull align 8 dereferenceable(8) %0) #1 comdat {
  %2 = alloca ptr, align 8
  store ptr %0, ptr %2, align 8
  %3 = load ptr, ptr %2, align 8
  %4 = call noundef nonnull align 8 dereferenceable(8) ptr @_ZSt12__get_helperILm0EP9t_mdatomsJSt14default_deleteIS0_EEERKT0_RKSt11_Tuple_implIXT_EJS4_DpT1_EE(ptr noundef nonnull align 8 dereferenceable(8) %3) #10
  ret ptr %4
}

; Function Attrs: mustprogress nounwind uwtable
define linkonce_odr noundef ptr @_ZNKSt15__uniq_ptr_implI9t_mdatomsSt14default_deleteIS0_EE6_M_ptrEv(ptr noundef nonnull align 8 dereferenceable(8) %0) #1 comdat align 2 {
  %2 = alloca ptr, align 8
  store ptr %0, ptr %2, align 8
  %3 = load ptr, ptr %2, align 8
  %4 = getelementptr inbounds %"class.std::__uniq_ptr_impl.36", ptr %3, i32 0, i32 0
  %5 = call noundef nonnull align 8 dereferenceable(8) ptr @_ZSt3getILm0EJP9t_mdatomsSt14default_deleteIS0_EEERKNSt13tuple_elementIXT_ESt5tupleIJDpT0_EEE4typeERKS8_(ptr noundef nonnull align 8 dereferenceable(8) %4) #10
  %6 = load ptr, ptr %5, align 8
  ret ptr %6
}

; Function Attrs: mustprogress nounwind uwtable
define linkonce_odr noundef ptr @_ZNKSt10unique_ptrI9t_mdatomsSt14default_deleteIS0_EE3getEv(ptr noundef nonnull align 8 dereferenceable(8) %0) #1 comdat align 2 {
  %2 = alloca ptr, align 8
  store ptr %0, ptr %2, align 8
  %3 = load ptr, ptr %2, align 8
  %4 = getelementptr inbounds %"class.std::unique_ptr.34", ptr %3, i32 0, i32 0
  %5 = call noundef ptr @_ZNKSt15__uniq_ptr_implI9t_mdatomsSt14default_deleteIS0_EE6_M_ptrEv(ptr noundef nonnull align 8 dereferenceable(8) %4) #10
  ret ptr %5
}

; Function Attrs: mustprogress nounwind uwtable
define internal void @_ZN3gmxL15scaleVelocitiesILNS_24NumVelocityScalingValuesE2EEEvifPA3_f(i32 noundef %0, float noundef %1, ptr noalias noundef %2) #1 {
  %4 = alloca i32, align 4
  %5 = alloca float, align 4
  %6 = alloca ptr, align 8
  %7 = alloca i32, align 4
  store i32 %0, ptr %4, align 4
  store float %1, ptr %5, align 4
  store ptr %2, ptr %6, align 8
  store i32 0, ptr %7, align 4
  br label %8

8:                                                ; preds = %22, %3
  %9 = load i32, ptr %7, align 4
  %10 = icmp slt i32 %9, 3
  br i1 %10, label %11, label %25

11:                                               ; preds = %8
  %12 = load float, ptr %5, align 4
  %13 = load ptr, ptr %6, align 8
  %14 = load i32, ptr %4, align 4
  %15 = sext i32 %14 to i64
  %16 = getelementptr inbounds [3 x float], ptr %13, i64 %15
  %17 = load i32, ptr %7, align 4
  %18 = sext i32 %17 to i64
  %19 = getelementptr inbounds [3 x float], ptr %16, i64 0, i64 %18
  %20 = load float, ptr %19, align 4
  %21 = fmul float %20, %12
  store float %21, ptr %19, align 4
  br label %22

22:                                               ; preds = %11
  %23 = load i32, ptr %7, align 4
  %24 = add nsw i32 %23, 1
  store i32 %24, ptr %7, align 4
  br label %8, !llvm.loop !75

25:                                               ; preds = %8
  ret void
}

; Function Attrs: mustprogress nounwind uwtable
define linkonce_odr noundef nonnull align 4 dereferenceable(4) ptr @_ZNSt6vectorIfSaIfEEixEm(ptr noundef nonnull align 8 dereferenceable(24) %0, i64 noundef %1) #1 comdat align 2 {
  %3 = alloca ptr, align 8
  %4 = alloca i64, align 8
  store ptr %0, ptr %3, align 8
  store i64 %1, ptr %4, align 8
  %5 = load ptr, ptr %3, align 8
  %6 = getelementptr inbounds %"struct.std::_Vector_base", ptr %5, i32 0, i32 0
  %7 = getelementptr inbounds %"struct.std::_Vector_base<float, std::allocator<float>>::_Vector_impl_data", ptr %6, i32 0, i32 0
  %8 = load ptr, ptr %7, align 8
  %9 = load i64, ptr %4, align 8
  %10 = getelementptr inbounds float, ptr %8, i64 %9
  ret ptr %10
}

; Function Attrs: mustprogress nounwind uwtable
define linkonce_odr noundef nonnull align 2 dereferenceable(2) ptr @_ZNKSt6vectorItSaItEEixEm(ptr noundef nonnull align 8 dereferenceable(24) %0, i64 noundef %1) #1 comdat align 2 {
  %3 = alloca ptr, align 8
  %4 = alloca i64, align 8
  store ptr %0, ptr %3, align 8
  store i64 %1, ptr %4, align 8
  %5 = load ptr, ptr %3, align 8
  %6 = getelementptr inbounds %"struct.std::_Vector_base.71", ptr %5, i32 0, i32 0
  %7 = getelementptr inbounds %"struct.std::_Vector_base<unsigned short, std::allocator<unsigned short>>::_Vector_impl_data", ptr %6, i32 0, i32 0
  %8 = load ptr, ptr %7, align 8
  %9 = load i64, ptr %4, align 8
  %10 = getelementptr inbounds i16, ptr %8, i64 %9
  ret ptr %10
}

; Function Attrs: mustprogress nounwind uwtable
define linkonce_odr noundef ptr @_ZNK3gmx7MDAtoms7mdatomsEv(ptr noundef nonnull align 8 dereferenceable(88) %0) #1 comdat align 2 {
  %2 = alloca ptr, align 8
  store ptr %0, ptr %2, align 8
  %3 = load ptr, ptr %2, align 8
  %4 = getelementptr inbounds %"class.gmx::MDAtoms", ptr %3, i32 0, i32 0
  %5 = call noundef ptr @_ZNKSt10unique_ptrI9t_mdatomsSt14default_deleteIS0_EE3getEv(ptr noundef nonnull align 8 dereferenceable(8) %4) #10
  ret ptr %5
}

; Function Attrs: norecurse nounwind uwtable
define internal void @_ZN3gmx10PropagatorILNS_16IntegrationStageE4EE3runILNS_24NumVelocityScalingValuesE2ELNS_31ParrinelloRahmanVelocityScalingE0ELS4_0ELNS_24NumPositionScalingValuesE0EEEvv.omp_outlined(ptr noalias noundef %0, ptr noalias noundef %1, ptr noundef nonnull align 4 dereferenceable(4) %2, ptr noundef nonnull align 4 dereferenceable(4) %3, ptr noundef %4, ptr noundef nonnull align 4 dereferenceable(4) %5, ptr noundef nonnull align 8 dereferenceable(8) %6) #9 personality ptr @__gxx_personality_v0 {
  %8 = alloca ptr, align 8
  %9 = alloca ptr, align 8
  %10 = alloca ptr, align 8
  %11 = alloca ptr, align 8
  %12 = alloca ptr, align 8
  %13 = alloca ptr, align 8
  %14 = alloca ptr, align 8
  %15 = alloca i32, align 4
  %16 = alloca i32, align 4
  %17 = alloca i32, align 4
  %18 = alloca i32, align 4
  %19 = alloca i32, align 4
  %20 = alloca i32, align 4
  %21 = alloca i32, align 4
  %22 = alloca i32, align 4
  %23 = alloca i32, align 4
  %24 = alloca i32, align 4
  %25 = alloca i32, align 4
  %26 = alloca ptr, align 8
  %27 = alloca i32, align 4
  %28 = alloca i32, align 4
  %29 = alloca ptr, align 8
  store ptr %0, ptr %8, align 8
  store ptr %1, ptr %9, align 8
  store ptr %2, ptr %10, align 8
  store ptr %3, ptr %11, align 8
  store ptr %4, ptr %12, align 8
  store ptr %5, ptr %13, align 8
  store ptr %6, ptr %14, align 8
  %30 = load ptr, ptr %10, align 8
  %31 = load ptr, ptr %11, align 8
  %32 = load ptr, ptr %12, align 8
  %33 = load ptr, ptr %14, align 8
  %34 = load i32, ptr %30, align 4
  store i32 %34, ptr %16, align 4
  %35 = load i32, ptr %16, align 4
  %36 = sub nsw i32 %35, 0
  %37 = sdiv i32 %36, 1
  %38 = sub nsw i32 %37, 1
  store i32 %38, ptr %17, align 4
  store i32 0, ptr %18, align 4
  %39 = load i32, ptr %16, align 4
  %40 = icmp slt i32 0, %39
  br i1 %40, label %41, label %113

41:                                               ; preds = %7
  store i32 0, ptr %19, align 4
  %42 = load i32, ptr %17, align 4
  store i32 %42, ptr %20, align 4
  store i32 1, ptr %21, align 4
  store i32 0, ptr %22, align 4
  %43 = load ptr, ptr %8, align 8
  %44 = load i32, ptr %43, align 4
  call void @__kmpc_for_static_init_4(ptr @1, i32 %44, i32 34, ptr %22, ptr %19, ptr %20, ptr %21, i32 1, i32 1)
  %45 = load i32, ptr %20, align 4
  %46 = load i32, ptr %17, align 4
  %47 = icmp sgt i32 %45, %46
  br i1 %47, label %48, label %50

48:                                               ; preds = %41
  %49 = load i32, ptr %17, align 4
  br label %52

50:                                               ; preds = %41
  %51 = load i32, ptr %20, align 4
  br label %52

52:                                               ; preds = %50, %48
  %53 = phi i32 [ %49, %48 ], [ %51, %50 ]
  store i32 %53, ptr %20, align 4
  %54 = load i32, ptr %19, align 4
  store i32 %54, ptr %15, align 4
  br label %55

55:                                               ; preds = %106, %52
  %56 = load i32, ptr %15, align 4
  %57 = load i32, ptr %20, align 4
  %58 = icmp sle i32 %56, %57
  br i1 %58, label %59, label %109

59:                                               ; preds = %55
  %60 = load i32, ptr %15, align 4
  %61 = mul nsw i32 %60, 1
  %62 = add nsw i32 0, %61
  store i32 %62, ptr %23, align 4
  store i32 0, ptr %24, align 4
  store i32 0, ptr %25, align 4
  %63 = load i32, ptr %30, align 4
  %64 = load i32, ptr %23, align 4
  %65 = load i32, ptr %31, align 4
  invoke void @_Z18getThreadAtomRangeiiiPiS_(i32 noundef %63, i32 noundef %64, i32 noundef %65, ptr noundef %24, ptr noundef %25)
          to label %66 unwind label %90

66:                                               ; preds = %59
  %67 = load i32, ptr %24, align 4
  store i32 %67, ptr %28, align 4
  br label %68

68:                                               ; preds = %87, %66
  %69 = load i32, ptr %28, align 4
  %70 = load i32, ptr %25, align 4
  %71 = icmp slt i32 %69, %70
  br i1 %71, label %72, label %103

72:                                               ; preds = %68
  %73 = load i32, ptr %28, align 4
  %74 = getelementptr inbounds %"class.gmx::Propagator.476", ptr %32, i32 0, i32 9
  %75 = getelementptr inbounds %"class.gmx::Propagator.476", ptr %32, i32 0, i32 16
  %76 = load ptr, ptr %75, align 8
  %77 = call noundef ptr @_ZNK3gmx7MDAtoms7mdatomsEv(ptr noundef nonnull align 8 dereferenceable(88) %76)
  %78 = getelementptr inbounds %struct.t_mdatoms, ptr %77, i32 0, i32 30
  %79 = load i32, ptr %28, align 4
  %80 = sext i32 %79 to i64
  %81 = call noundef nonnull align 2 dereferenceable(2) ptr @_ZNKSt6vectorItSaItEEixEm(ptr noundef nonnull align 8 dereferenceable(24) %78, i64 noundef %80) #10
  %82 = load i16, ptr %81, align 2
  %83 = zext i16 %82 to i64
  %84 = call noundef nonnull align 4 dereferenceable(4) ptr @_ZNSt6vectorIfSaIfEEixEm(ptr noundef nonnull align 8 dereferenceable(24) %74, i64 noundef %83) #10
  %85 = load float, ptr %84, align 4
  %86 = load ptr, ptr %33, align 8
  call void @_ZN3gmxL15scaleVelocitiesILNS_24NumVelocityScalingValuesE2EEEvifPA3_f(i32 noundef %73, float noundef %85, ptr noundef %86)
  br label %87

87:                                               ; preds = %72
  %88 = load i32, ptr %28, align 4
  %89 = add nsw i32 %88, 1
  store i32 %89, ptr %28, align 4
  br label %68, !llvm.loop !78

90:                                               ; preds = %59
  %91 = landingpad { ptr, i32 }
          catch ptr @_ZTISt9exception
          catch ptr null
  %92 = extractvalue { ptr, i32 } %91, 0
  store ptr %92, ptr %26, align 8
  %93 = extractvalue { ptr, i32 } %91, 1
  store i32 %93, ptr %27, align 4
  br label %94

94:                                               ; preds = %90
  %95 = load i32, ptr %27, align 4
  %96 = call i32 @llvm.eh.typeid.for(ptr @_ZTISt9exception) #10
  %97 = icmp eq i32 %95, %96
  br i1 %97, label %98, label %117

98:                                               ; preds = %94
  %99 = load ptr, ptr %26, align 8
  %100 = call ptr @__cxa_begin_catch(ptr %99) #10
  store ptr %100, ptr %29, align 8
  %101 = load ptr, ptr %29, align 8
  invoke void @_ZN3gmx28processExceptionAsFatalErrorERKSt9exception(ptr noundef nonnull align 8 dereferenceable(8) %101) #20
          to label %102 unwind label %114

102:                                              ; preds = %98
  unreachable

103:                                              ; preds = %68
  br label %104

104:                                              ; preds = %103
  br label %105

105:                                              ; preds = %104
  br label %106

106:                                              ; preds = %105
  %107 = load i32, ptr %15, align 4
  %108 = add nsw i32 %107, 1
  store i32 %108, ptr %15, align 4
  br label %55

109:                                              ; preds = %55
  br label %110

110:                                              ; preds = %109
  %111 = load ptr, ptr %8, align 8
  %112 = load i32, ptr %111, align 4
  call void @__kmpc_for_static_fini(ptr @1, i32 %112)
  br label %113

113:                                              ; preds = %110, %7
  ret void

114:                                              ; preds = %98
  %115 = landingpad { ptr, i32 }
          catch ptr null
  %116 = extractvalue { ptr, i32 } %115, 0
  call void @__clang_call_terminate(ptr %116) #19
  unreachable

117:                                              ; preds = %94
  %118 = load ptr, ptr %26, align 8
  call void @__clang_call_terminate(ptr %118) #19
  unreachable
}